; Function Attrs: mustprogress nofree nounwind willreturn memory(argmem: read) uwtable
define dso_local noundef zeroext i1 @_Z14additionalTestIL18TransitiveProperty2EEbPKc(ptr noundef readonly captures(none) %0) local_unnamed_addr #8 personality ptr @__gxx_personality_v0 {
  %2 = tail call noundef i64 @strlen(ptr noundef nonnull dereferenceable(1) %0) #19
  %3 = icmp eq i64 %2, 0
  br i1 %3, label %_ZNSt11char_traitsIcE7compareEPKcS2_m.exit.thread.i.i.i.i, label %_ZNSt11char_traitsIcE7compareEPKcS2_m.exit.i.i.i.i

_ZNSt11char_traitsIcE7compareEPKcS2_m.exit.i.i.i.i: ; preds = %1
  %.sroa.speculated.i.i.i.i = tail call i64 @llvm.umin.i64(i64 %2, i64 20)
  %bcmp.i.i = tail call i32 @bcmp(ptr nonnull %0, ptr nonnull @.str.28, i64 %.sroa.speculated.i.i.i.i)
  %4 = icmp eq i32 %bcmp.i.i, 0
  br i1 %4, label %_ZNSt11char_traitsIcE7compareEPKcS2_m.exit.thread.i.i.i.i, label %_Z18cmHasLiteralPrefixILm21EEbSt17basic_string_viewIcSt11char_traitsIcEERAT__Kc.exit

_ZNSt11char_traitsIcE7compareEPKcS2_m.exit.thread.i.i.i.i: ; preds = %_ZNSt11char_traitsIcE7compareEPKcS2_m.exit.i.i.i.i, %1
  %5 = icmp ugt i64 %2, 19
  br label %_Z18cmHasLiteralPrefixILm21EEbSt17basic_string_viewIcSt11char_traitsIcEERAT__Kc.exit

_Z18cmHasLiteralPrefixILm21EEbSt17basic_string_viewIcSt11char_traitsIcEERAT__Kc.exit: ; preds = %_ZNSt11char_traitsIcE7compareEPKcS2_m.exit.i.i.i.i, %_ZNSt11char_traitsIcE7compareEPKcS2_m.exit.thread.i.i.i.i
  %.0.i.i.i.i = phi i1 [ %5, %_ZNSt11char_traitsIcE7compareEPKcS2_m.exit.thread.i.i.i.i ], [ false, %_ZNSt11char_traitsIcE7compareEPKcS2_m.exit.i.i.i.i ]
  ret i1 %.0.i.i.i.i
}